Certificate:
    Data:
        Version: 3 (0x2)
        Serial Number:
            3b:64:21:fa:a8:5b:05:1b:99:03:5d:72:0e:17:0b:19
        Signature Algorithm: sha1WithRSAEncryption
        Issuer: C=US, O=VeriSign, Inc., OU=Class 3 Public Primary Certification Authority - G2, OU=(c) 1998 VeriSign, Inc. - For authorized use only, OU=VeriSign Trust Network
        Validity
            Not Before: Apr  1 00:00:00 2009 GMT
            Not After : Mar 31 23:59:59 2019 GMT
        Subject: C=US, O=VeriSign, Inc., OU=VeriSign Trust Network, OU=Terms of use at https://www.verisign.com/rpa (c)09, CN=VeriSign Class 3 Secure OFX CA - G3
        Subject Public Key Info:
            Public Key Algorithm: rsaEncryption
            RSA Public Key: (2048 bit)
                Modulus (2048 bit):
                    00:9e:5b:56:a1:7c:1b:8a:1b:ad:05:3d:e7:7d:25:
                    c6:55:0a:d6:13:47:c3:56:db:ea:90:44:db:84:7f:
                    6c:25:ff:1c:2f:16:14:82:09:2a:98:72:02:25:d3:
                    ab:6f:ea:60:96:b8:35:28:6a:fb:83:0e:03:90:e6:
                    22:5e:5e:b7:42:55:9f:5e:54:07:9c:6a:33:0a:7d:
                    63:4f:13:cd:45:e5:58:25:6a:af:15:2c:2f:a0:a9:
                    04:81:ee:40:56:18:6c:06:07:7c:9b:ad:5f:06:0e:
                    84:87:04:06:84:8b:1f:47:fb:6c:7b:1c:9d:cf:ab:
                    1a:a9:74:de:79:14:cc:e5:37:98:a9:5b:54:7b:35:
                    f7:d0:04:e5:88:56:78:90:95:b1:b6:be:33:cc:bb:
                    4d:00:15:ee:e0:12:f3:92:21:4c:d7:8f:4c:9e:05:
                    7b:63:86:71:41:27:bd:7b:6b:02:9a:e5:98:34:20:
                    87:52:62:1c:68:ae:c8:4c:13:b7:66:df:e6:33:5b:
                    05:e7:7b:5a:23:5a:71:fa:29:62:7b:0c:0c:86:42:
                    dc:4b:88:f3:bf:85:24:de:05:a4:e8:5e:af:0c:74:
                    35:1f:80:e4:b6:ab:36:53:c3:5e:02:f6:2b:8c:1f:
                    12:54:38:ef:11:c8:fc:5e:c0:10:df:31:86:72:54:
                    aa:b7
                Exponent: 65537 (0x10001)
        X509v3 extensions:
            Authority Information Access:
                OCSP - URI:http://ocsp.verisign.com

            X509v3 Basic Constraints: critical
                CA:TRUE, pathlen:0
            X509v3 Certificate Policies:
                Policy: 2.16.840.1.113733.1.7.23.3
                  CPS: https://www.verisign.com/cps
                  User Notice:
                    Explicit Text: https://www.verisign.com/rpa

            X509v3 CRL Distribution Points:
                URI:http://crl.verisign.com/pca3-g2.crl

            X509v3 Key Usage: critical
                Certificate Sign, CRL Sign
            1.3.6.1.5.5.7.1.12:
                0_.].[0Y0W0U..image/gif0!0.0...+..............k...j.H.,{..0%.#http://logo.verisign.com/vslogo.gif
            X509v3 Subject Alternative Name:
                DirName:/CN=Class3CA2048-1-54
            X509v3 Subject Key Identifier:
                C4:3E:C0:3B:0C:F9:07:1C:F3:BF:43:AB:26:96:A2:55:B4:EF:23:88
            X509v3 Authority Key Identifier:
                DirName:/C=US/O=VeriSign, Inc./OU=Class 3 Public Primary Certification Authority - G2/OU=(c) 1998 VeriSign, Inc. - For authorized use only/OU=VeriSign Trust Network
                serial:7D:D9:FE:07:CF:A8:1E:B7:10:79:67:FB:A7:89:34:C6

    Signature Algorithm: sha1WithRSAEncryption
        28:d0:49:ae:cb:68:ed:7d:d1:98:77:de:85:43:ae:d0:45:86:
        50:21:20:17:2a:b4:c0:11:a9:50:91:a8:c2:3b:68:18:29:45:
        f0:d1:92:ed:d4:d8:96:e3:14:53:67:33:b9:48:6b:84:a2:54:
        bc:20:75:c8:49:6c:f2:a7:b9:ee:ab:36:b1:b4:1c:5d:28:c7:
        04:1d:a8:6f:86:c2:b6:40:6a:3f:84:91:53:0c:0d:34:27:4d:
        55:1c:94:d5:39:b5:a7:81:ab:fe:c2:57:19:3a:70:e1:f7:6f:
        41:93:85:fc:71:b3:f9:76:8e:0c:35:fc:d4:69:2c:ff:f1:ba:
        5f:25
-----BEGIN CERTIFICATE-----
MIIGKTCCBZKgAwIBAgIQO2Qh+qhbBRuZA11yDhcLGTANBgkqhkiG9w0BAQUFADCB
wTELMAkGA1UEBhMCVVMxFzAVBgNVBAoTDlZlcmlTaWduLCBJbmMuMTwwOgYDVQQL
EzNDbGFzcyAzIFB1YmxpYyBQcmltYXJ5IENlcnRpZmljYXRpb24gQXV0aG9yaXR5
IC0gRzIxOjA4BgNVBAsTMShjKSAxOTk4IFZlcmlTaWduLCBJbmMuIC0gRm9yIGF1
dGhvcml6ZWQgdXNlIG9ubHkxHzAdBgNVBAsTFlZlcmlTaWduIFRydXN0IE5ldHdv
cmswHhcNMDkwNDAxMDAwMDAwWhcNMTkwMzMxMjM1OTU5WjCBsjELMAkGA1UEBhMC
VVMxFzAVBgNVBAoTDlZlcmlTaWduLCBJbmMuMR8wHQYDVQQLExZWZXJpU2lnbiBU
cnVzdCBOZXR3b3JrMTswOQYDVQQLEzJUZXJtcyBvZiB1c2UgYXQgaHR0cHM6Ly93
d3cudmVyaXNpZ24uY29tL3JwYSAoYykwOTEsMCoGA1UEAxMjVmVyaVNpZ24gQ2xh
c3MgMyBTZWN1cmUgT0ZYIENBIC0gRzMwggEiMA0GCSqGSIb3DQEBAQUAA4IBDwAw
ggEKAoIBAQCeW1ahfBuKG60FPed9JcZVCtYTR8NW2+qQRNuEf2wl/xwvFhSCCSqY
cgIl06tv6mCWuDUoavuDDgOQ5iJeXrdCVZ9eVAecajMKfWNPE81F5Vglaq8VLC+g
qQSB7kBWGGwGB3ybrV8GDoSHBAaEix9H+2x7HJ3PqxqpdN55FMzlN5ipW1R7NffQ
BOWIVniQlbG2vjPMu00AFe7gEvOSIUzXj0yeBXtjhnFBJ717awKa5Zg0IIdSYhxo
rshME7dm3+YzWwXne1ojWnH6KWJ7DAyGQtxLiPO/hSTeBaToXq8MdDUfgOS2qzZT
w14C9iuMHxJUOO8RyPxewBDfMYZyVKq3AgMBAAGjggKpMIICpTA0BggrBgEFBQcB
AQQoMCYwJAYIKwYBBQUHMAGGGGh0dHA6Ly9vY3NwLnZlcmlzaWduLmNvbTASBgNV
HRMBAf8ECDAGAQH/AgEAMHAGA1UdIARpMGcwZQYLYIZIAYb4RQEHFwMwVjAoBggr
BgEFBQcCARYcaHR0cHM6Ly93d3cudmVyaXNpZ24uY29tL2NwczAqBggrBgEFBQcC
AjAeGhxodHRwczovL3d3dy52ZXJpc2lnbi5jb20vcnBhMDQGA1UdHwQtMCswKaAn
oCWGI2h0dHA6Ly9jcmwudmVyaXNpZ24uY29tL3BjYTMtZzIuY3JsMA4GA1UdDwEB
/wQEAwIBBjBtBggrBgEFBQcBDARhMF+hXaBbMFkwVzBVFglpbWFnZS9naWYwITAf
MAcGBSsOAwIaBBSP5dMahqyNjmvDz4Bq1EgYLHsZLjAlFiNodHRwOi8vbG9nby52
ZXJpc2lnbi5jb20vdnNsb2dvLmdpZjApBgNVHREEIjAgpB4wHDEaMBgGA1UEAxMR
Q2xhc3MzQ0EyMDQ4LTEtNTQwHQYDVR0OBBYEFMQ+wDsM+Qcc879DqyaWolW07yOI
MIHnBgNVHSMEgd8wgdyhgcekgcQwgcExCzAJBgNVBAYTAlVTMRcwFQYDVQQKEw5W
ZXJpU2lnbiwgSW5jLjE8MDoGA1UECxMzQ2xhc3MgMyBQdWJsaWMgUHJpbWFyeSBD
ZXJ0aWZpY2F0aW9uIEF1dGhvcml0eSAtIEcyMTowOAYDVQQLEzEoYykgMTk5OCBW
ZXJpU2lnbiwgSW5jLiAtIEZvciBhdXRob3JpemVkIHVzZSBvbmx5MR8wHQYDVQQL
ExZWZXJpU2lnbiBUcnVzdCBOZXR3b3JrghB92f4Hz6getxB5Z/uniTTGMA0GCSqG
SIb3DQEBBQUAA4GBACjQSa7LaO190Zh33oVDrtBFhlAhIBcqtMARqVCRqMI7aBgp
RfDRku3U2JbjFFNnM7lIa4SiVLwgdchJbPKnue6rNrG0HF0oxwQdqG+GwrZAaj+E
kVMMDTQnTVUclNU5taeBq/7CVxk6cOH3b0GThfxxs/l2jgw1/NRpLP/xul8l
-----END CERTIFICATE-----
